; ModuleID = 'bench/lean4/original/ffi.ll'
source_filename = "bench/lean4/original/ffi.ll"
target datalayout = "e-m:e-p270:32:32-p271:32:32-p272:64:64-i64:64-i128:128-f80:128-n8:16:32:64-S128"
target triple = "x86_64-pc-linux-gnu"

module asm ".globl _ZSt21ios_base_library_initv"

@.str = private unnamed_addr constant [238 x i8] c"-w -Wno-unused-command-line-argument -DNDEBUG -O3 -fpass-plugin=/home/dtcxzyw/WorkSpace/Projects/compilers/llvm-opt-benchmark/build/preprocess.so -Qn -Wno-builtin-macro-redefined -fstack-clash-protection -fwrapv -fPIC -fvisibility=hidden\00", align 1
@.str.1 = private unnamed_addr constant [1 x i8] zeroinitializer, align 1
@.str.2 = private unnamed_addr constant [411 x i8] c"  -Wl,--start-group -lleancpp -lLean -Wl,--end-group -lStd -Wl,--start-group -lInit -lleanrt -Wl,--end-group -lstdc++ -lLake -w -Wno-unused-command-line-argument -DNDEBUG -O3 -fpass-plugin=/home/dtcxzyw/WorkSpace/Projects/compilers/llvm-opt-benchmark/build/preprocess.so -Qn -Wno-builtin-macro-redefined /usr/lib/x86_64-linux-gnu/libgmp.so -L/usr/lib/x86_64-linux-gnu -luv -lpthread -ldl -lrt -lm -ldl -pthread\00", align 1
@.str.3 = private unnamed_addr constant [361 x i8] c"  -lstdc++ -Wl,--as-needed -lLake_shared -Wl,--no-as-needed -Wl,-Bsymbolic -w -Wno-unused-command-line-argument -DNDEBUG -O3 -fpass-plugin=/home/dtcxzyw/WorkSpace/Projects/compilers/llvm-opt-benchmark/build/preprocess.so -Qn -Wno-builtin-macro-redefined /usr/lib/x86_64-linux-gnu/libgmp.so -L/usr/lib/x86_64-linux-gnu -luv -lpthread -ldl -lrt -lm -ldl -pthread\00", align 1

; Function Attrs: mustprogress uwtable
define ptr @lean_get_leanc_extra_flags(ptr noundef readnone captures(none) %0) local_unnamed_addr #0 {
  %2 = tail call ptr @lean_mk_string(ptr noundef nonnull @.str)
  ret ptr %2
}

declare ptr @lean_mk_string(ptr noundef) local_unnamed_addr #1

; Function Attrs: mustprogress uwtable
define ptr @lean_get_leanc_internal_flags(ptr noundef readnone captures(none) %0) local_unnamed_addr #0 {
  %2 = tail call ptr @lean_mk_string(ptr noundef nonnull @.str.1)
  ret ptr %2
}

; Function Attrs: mustprogress uwtable
define ptr @lean_get_linker_flags(i8 noundef zeroext %0) local_unnamed_addr #0 {
  %.not = icmp eq i8 %0, 0
  %2 = select i1 %.not, ptr @.str.3, ptr @.str.2
  %3 = tail call ptr @lean_mk_string(ptr noundef nonnull %2)
  ret ptr %3
}

; Function Attrs: mustprogress uwtable
define ptr @lean_get_internal_linker_flags(ptr noundef readnone captures(none) %0) local_unnamed_addr #0 {
  %2 = tail call ptr @lean_mk_string(ptr noundef nonnull @.str.1)
  ret ptr %2
}


!llvm.module.flags = !{!0, !1, !2}

!0 = !{i32 1, !"wchar_size", i32 4}
!1 = !{i32 8, !"PIC Level", i32 2}
!2 = !{i32 7, !"uwtable", i32 2}
